target datalayout = "e-m:e-p270:32:32-p271:32:32-p272:64:64-i64:64-i128:128-f80:128-n8:16:32:64-S128"
target triple = "x86_64-pc-linux-gnu"

%"class.std::basic_ostream" = type { ptr, %"class.std::basic_ios" }
%"class.std::basic_ios" = type { %"class.std::ios_base", ptr, i8, i8, ptr, ptr, ptr, ptr }
%"class.std::ios_base" = type { ptr, i64, i64, i32, i32, i32, ptr, %"struct.std::ios_base::_Words", [8 x %"struct.std::ios_base::_Words"], i32, ptr, %"class.std::locale" }
%"struct.std::ios_base::_Words" = type { ptr, i64 }
%"class.std::locale" = type { ptr }
%class.cmXMLParser = type { ptr, i32, ptr, ptr, ptr }

@_ZSt4cerr = external global %"class.std::basic_ostream", align 8
@.str = private unnamed_addr constant [27 x i8] c"Parser already initialized\00", align 1

; Function Attrs: mustprogress uwtable
define dso_local noundef i32 @_ZN11cmXMLParser16InitializeParserEv(ptr noundef nonnull align 8 dereferenceable(40) %0) unnamed_addr #7 align 2 {
  %2 = alloca i32, align 4
  %3 = alloca ptr, align 8
  store ptr %0, ptr %3, align 8
  %4 = load ptr, ptr %3, align 8
  %5 = getelementptr inbounds %class.cmXMLParser, ptr %4, i32 0, i32 4
  %6 = load ptr, ptr %5, align 8
  %7 = icmp ne ptr %6, null
  br i1 %7, label %8, label %12

8:                                                ; preds = %1
  %9 = call noundef nonnull align 8 dereferenceable(8) ptr @_ZStlsISt11char_traitsIcEERSt13basic_ostreamIcT_ES5_PKc(ptr noundef nonnull align 8 dereferenceable(8) @_ZSt4cerr, ptr noundef @.str)
  %10 = call noundef nonnull align 8 dereferenceable(8) ptr @_ZNSolsEPFRSoS_E(ptr noundef nonnull align 8 dereferenceable(8) %9, ptr noundef @_ZSt4endlIcSt11char_traitsIcEERSt13basic_ostreamIT_T0_ES6_)
  %11 = getelementptr inbounds %class.cmXMLParser, ptr %4, i32 0, i32 1
  store i32 1, ptr %11, align 8
  store i32 0, ptr %2, align 4
  br label %22

12:                                               ; preds = %1
  %13 = call ptr @XML_ParserCreate(ptr noundef null)
  %14 = getelementptr inbounds %class.cmXMLParser, ptr %4, i32 0, i32 4
  store ptr %13, ptr %14, align 8
  %15 = getelementptr inbounds %class.cmXMLParser, ptr %4, i32 0, i32 4
  %16 = load ptr, ptr %15, align 8
  call void @XML_SetElementHandler(ptr noundef %16, ptr noundef @cmXMLParserStartElement, ptr noundef @cmXMLParserEndElement)
  %17 = getelementptr inbounds %class.cmXMLParser, ptr %4, i32 0, i32 4
  %18 = load ptr, ptr %17, align 8
  call void @XML_SetCharacterDataHandler(ptr noundef %18, ptr noundef @cmXMLParserCharacterDataHandler)
  %19 = getelementptr inbounds %class.cmXMLParser, ptr %4, i32 0, i32 4
  %20 = load ptr, ptr %19, align 8
  call void @XML_SetUserData(ptr noundef %20, ptr noundef %4)
  %21 = getelementptr inbounds %class.cmXMLParser, ptr %4, i32 0, i32 1
  store i32 0, ptr %21, align 8
  store i32 1, ptr %2, align 4
  br label %22

22:                                               ; preds = %12, %8
  %23 = load i32, ptr %2, align 4
  ret i32 %23
}