; Function Attrs: mustprogress uwtable
define dso_local noundef i32 @_ZN11cmXMLParser16InitializeParserEv(ptr noundef nonnull align 8 dereferenceable(40) %0) unnamed_addr #7 align 2 {
  %2 = getelementptr inbounds i8, ptr %0, i64 32
  %3 = load ptr, ptr %2, align 8
  %.not = icmp eq ptr %3, null
  br i1 %.not, label %7, label %4

4:                                                ; preds = %1
  %5 = tail call noundef nonnull align 8 dereferenceable(8) ptr @_ZStlsISt11char_traitsIcEERSt13basic_ostreamIcT_ES5_PKc(ptr noundef nonnull align 8 dereferenceable(8) @_ZSt4cerr, ptr noundef nonnull @.str)
  %6 = tail call noundef nonnull align 8 dereferenceable(8) ptr @_ZNSolsEPFRSoS_E(ptr noundef nonnull align 8 dereferenceable(8) %5, ptr noundef nonnull @_ZSt4endlIcSt11char_traitsIcEERSt13basic_ostreamIT_T0_ES6_)
  br label %11

7:                                                ; preds = %1
  %8 = tail call ptr @XML_ParserCreate(ptr noundef null)
  store ptr %8, ptr %2, align 8
  tail call void @XML_SetElementHandler(ptr noundef %8, ptr noundef nonnull @cmXMLParserStartElement, ptr noundef nonnull @cmXMLParserEndElement)
  %9 = load ptr, ptr %2, align 8
  tail call void @XML_SetCharacterDataHandler(ptr noundef %9, ptr noundef nonnull @cmXMLParserCharacterDataHandler)
  %10 = load ptr, ptr %2, align 8
  tail call void @XML_SetUserData(ptr noundef %10, ptr noundef nonnull %0)
  br label %11

11:                                               ; preds = %7, %4
  %.sink = phi i32 [ 0, %7 ], [ 1, %4 ]
  %.0 = phi i32 [ 1, %7 ], [ 0, %4 ]
  %12 = getelementptr inbounds i8, ptr %0, i64 8
  store i32 %.sink, ptr %12, align 8
  ret i32 %.0
}